; Function Attrs: nounwind sspstrong uwtable
define dso_local ptr @dln_symbol(ptr noundef %0, ptr noundef %1) local_unnamed_addr #0 {
  %3 = icmp eq ptr %0, null
  br i1 %3, label %4, label %6

4:                                                ; preds = %2
  %5 = tail call ptr @dlopen(ptr noundef null, i32 noundef 257) #9
  br label %6

6:                                                ; preds = %4, %2
  %.0 = phi ptr [ %5, %4 ], [ %0, %2 ]
  %7 = tail call ptr @dlsym(ptr noundef %.0, ptr noundef %1) #9
  ret ptr %7
}